; Function Attrs: mustprogress nofree norecurse nosync nounwind willreturn memory(argmem: read) uwtable
define noundef zeroext i16 @_ZN6LibRaw5sget2EPh(ptr noundef nonnull readonly align 8 captures(none) dereferenceable(767680) %0, ptr noundef readonly captures(none) %1) local_unnamed_addr #0 align 2 {
  %3 = getelementptr inbounds nuw i8, ptr %0, i64 381552
  %4 = load i16, ptr %3, align 8, !tbaa !6
  %5 = icmp eq i16 %4, 18761
  br i1 %5, label %6, label %8

6:                                                ; preds = %2
  %7 = load i16, ptr %1, align 1
  br label %_Z19libraw_sget2_staticsPh.exit

8:                                                ; preds = %2
  %9 = load i8, ptr %1, align 1, !tbaa !71
  %10 = zext i8 %9 to i16
  %11 = shl nuw i16 %10, 8
  %12 = getelementptr inbounds nuw i8, ptr %1, i64 1
  %13 = load i8, ptr %12, align 1, !tbaa !71
  %14 = zext i8 %13 to i16
  %15 = or disjoint i16 %11, %14
  br label %_Z19libraw_sget2_staticsPh.exit

_Z19libraw_sget2_staticsPh.exit:                  ; preds = %6, %8
  %.0.i = phi i16 [ %7, %6 ], [ %15, %8 ]
  ret i16 %.0.i
}